target datalayout = "e-m:e-p270:32:32-p271:32:32-p272:64:64-i64:64-i128:128-f80:128-n8:16:32:64-S128"
target triple = "x86_64-pc-linux-gnu"

%class.MutableSpace = type { ptr, %class.MemRegion, i64, ptr, ptr, ptr }
%class.MemRegion = type { ptr, i64 }
%"class.MutableNUMASpace::LGRPSpace" = type { i32, ptr, ptr, i8, %"struct.MutableNUMASpace::LGRPSpace::SpaceStats" }
%"struct.MutableNUMASpace::LGRPSpace::SpaceStats" = type { i64, i64, i64, i64 }

@_ZN6OSInfo13_vm_page_sizeE = external global i64, align 8

; Function Attrs: mustprogress nounwind uwtable
define linkonce_odr hidden noundef i64 @_Z12checked_castImmET_T0_(i64 noundef %0) #1 comdat {
  %2 = alloca i64, align 8
  %3 = alloca i64, align 8
  store i64 %0, ptr %2, align 8
  %4 = load i64, ptr %2, align 8
  store i64 %4, ptr %3, align 8
  %5 = load i64, ptr %3, align 8
  ret i64 %5
}

; Function Attrs: mustprogress nounwind uwtable
define internal noundef i64 @_ZL14alignment_maskImTnNSt9enable_ifIXcvbsr3std11is_integralIT_EE5valueEiE4typeELi0EES1_S1_(i64 noundef %0) #1 {
  %2 = alloca i64, align 8
  store i64 %0, ptr %2, align 8
  %3 = load i64, ptr %2, align 8
  %4 = sub i64 %3, 1
  ret i64 %4
}

; Function Attrs: mustprogress nounwind uwtable
define linkonce_odr hidden noundef i64 @_ZN6OSInfo12vm_page_sizeEv() #1 comdat align 2 {
  %1 = load i64, ptr @_ZN6OSInfo13_vm_page_sizeE, align 8
  ret i64 %1
}

; Function Attrs: mustprogress nounwind uwtable
define linkonce_odr hidden noundef i64 @_Z10align_downImmTnNSt9enable_ifIXcvbsr3std11is_integralIT_EE5valueEiE4typeELi0EES1_S1_T0_(i64 noundef %0, i64 noundef %1) #1 comdat {
  %3 = alloca i64, align 8
  %4 = alloca i64, align 8
  %5 = alloca i64, align 8
  store i64 %0, ptr %3, align 8
  store i64 %1, ptr %4, align 8
  %6 = load i64, ptr %3, align 8
  %7 = load i64, ptr %4, align 8
  %8 = call noundef i64 @_ZL14alignment_maskImTnNSt9enable_ifIXcvbsr3std11is_integralIT_EE5valueEiE4typeELi0EES1_S1_(i64 noundef %7)
  %9 = xor i64 %8, -1
  %10 = and i64 %6, %9
  store i64 %10, ptr %5, align 8
  %11 = load i64, ptr %5, align 8
  ret i64 %11
}

; Function Attrs: mustprogress nounwind uwtable
define linkonce_odr hidden noundef i64 @_Z8align_upImmTnNSt9enable_ifIXcvbsr3std11is_integralIT_EE5valueEiE4typeELi0EES1_S1_T0_(i64 noundef %0, i64 noundef %1) #1 comdat {
  %3 = alloca i64, align 8
  %4 = alloca i64, align 8
  %5 = alloca i64, align 8
  store i64 %0, ptr %3, align 8
  store i64 %1, ptr %4, align 8
  %6 = load i64, ptr %3, align 8
  %7 = load i64, ptr %4, align 8
  %8 = call noundef i64 @_ZL14alignment_maskImTnNSt9enable_ifIXcvbsr3std11is_integralIT_EE5valueEiE4typeELi0EES1_S1_(i64 noundef %7)
  %9 = add i64 %6, %8
  %10 = call noundef i64 @_Z12checked_castImmET_T0_(i64 noundef %9)
  store i64 %10, ptr %5, align 8
  %11 = load i64, ptr %5, align 8
  %12 = load i64, ptr %4, align 8
  %13 = call noundef i64 @_Z10align_downImmTnNSt9enable_ifIXcvbsr3std11is_integralIT_EE5valueEiE4typeELi0EES1_S1_T0_(i64 noundef %11, i64 noundef %12)
  ret i64 %13
}

; Function Attrs: mustprogress nounwind uwtable
define linkonce_odr hidden void @_ZN16MutableNUMASpace9LGRPSpace10SpaceStatsC2Ev(ptr noundef nonnull align 8 dereferenceable(32) %0) unnamed_addr #1 comdat align 2 {
  %2 = alloca ptr, align 8
  store ptr %0, ptr %2, align 8
  %3 = load ptr, ptr %2, align 8
  %4 = getelementptr inbounds %"struct.MutableNUMASpace::LGRPSpace::SpaceStats", ptr %3, i32 0, i32 0
  store i64 0, ptr %4, align 8
  %5 = getelementptr inbounds %"struct.MutableNUMASpace::LGRPSpace::SpaceStats", ptr %3, i32 0, i32 1
  store i64 0, ptr %5, align 8
  %6 = getelementptr inbounds %"struct.MutableNUMASpace::LGRPSpace::SpaceStats", ptr %3, i32 0, i32 2
  store i64 0, ptr %6, align 8
  %7 = getelementptr inbounds %"struct.MutableNUMASpace::LGRPSpace::SpaceStats", ptr %3, i32 0, i32 3
  store i64 0, ptr %7, align 8
  ret void
}

; Function Attrs: mustprogress nounwind uwtable
define linkonce_odr hidden noundef i64 @_Z13pointer_deltaPVKvS0_m(ptr noundef %0, ptr noundef %1, i64 noundef %2) #1 comdat {
  %4 = alloca ptr, align 8
  %5 = alloca ptr, align 8
  %6 = alloca i64, align 8
  store ptr %0, ptr %4, align 8
  store ptr %1, ptr %5, align 8
  store i64 %2, ptr %6, align 8
  %7 = load ptr, ptr %4, align 8
  %8 = ptrtoint ptr %7 to i64
  %9 = load ptr, ptr %5, align 8
  %10 = ptrtoint ptr %9 to i64
  %11 = sub i64 %8, %10
  %12 = load i64, ptr %6, align 8
  %13 = udiv i64 %11, %12
  ret i64 %13
}

; Function Attrs: mustprogress nounwind uwtable
define linkonce_odr hidden noundef i32 @_ZNK16MutableNUMASpace9LGRPSpace7lgrp_idEv(ptr noundef nonnull align 8 dereferenceable(64) %0) #1 comdat align 2 {
  %2 = alloca ptr, align 8
  store ptr %0, ptr %2, align 8
  %3 = load ptr, ptr %2, align 8
  %4 = getelementptr inbounds %"class.MutableNUMASpace::LGRPSpace", ptr %3, i32 0, i32 0
  %5 = load i32, ptr %4, align 8
  ret i32 %5
}

; Function Attrs: mustprogress nounwind uwtable
define linkonce_odr hidden noundef i32 @_Z12checked_castIjiET_T0_(i32 noundef %0) #1 comdat {
  %2 = alloca i32, align 4
  %3 = alloca i32, align 4
  store i32 %0, ptr %2, align 4
  %4 = load i32, ptr %2, align 4
  store i32 %4, ptr %3, align 4
  %5 = load i32, ptr %3, align 4
  ret i32 %5
}

; Function Attrs: mustprogress nounwind uwtable
define linkonce_odr hidden noundef ptr @_ZN16MutableNUMASpace9LGRPSpace11space_statsEv(ptr noundef nonnull align 8 dereferenceable(64) %0) #1 comdat align 2 {
  %2 = alloca ptr, align 8
  store ptr %0, ptr %2, align 8
  %3 = load ptr, ptr %2, align 8
  %4 = getelementptr inbounds %"class.MutableNUMASpace::LGRPSpace", ptr %3, i32 0, i32 4
  ret ptr %4
}

; Function Attrs: mustprogress nounwind uwtable
define linkonce_odr hidden noundef i64 @_ZN2os12vm_page_sizeEv() #1 comdat align 2 {
  %1 = call noundef i64 @_ZN6OSInfo12vm_page_sizeEv()
  ret i64 %1
}

; Function Attrs: mustprogress nounwind uwtable
define linkonce_odr hidden noundef ptr @_Z10align_downIP12HeapWordImplmEPT_S3_T0_(ptr noundef %0, i64 noundef %1) #1 comdat {
  %3 = alloca ptr, align 8
  %4 = alloca i64, align 8
  store ptr %0, ptr %3, align 8
  store i64 %1, ptr %4, align 8
  %5 = load ptr, ptr %3, align 8
  %6 = ptrtoint ptr %5 to i64
  %7 = load i64, ptr %4, align 8
  %8 = call noundef i64 @_Z10align_downImmTnNSt9enable_ifIXcvbsr3std11is_integralIT_EE5valueEiE4typeELi0EES1_S1_T0_(i64 noundef %6, i64 noundef %7)
  %9 = inttoptr i64 %8 to ptr
  ret ptr %9
}

; Function Attrs: mustprogress nounwind uwtable
define linkonce_odr hidden noundef ptr @_ZNK12MutableSpace3endEv(ptr noundef nonnull align 8 dereferenceable(56) %0) #1 comdat align 2 {
  %2 = alloca ptr, align 8
  store ptr %0, ptr %2, align 8
  %3 = load ptr, ptr %2, align 8
  %4 = getelementptr inbounds %class.MutableSpace, ptr %3, i32 0, i32 5
  %5 = load ptr, ptr %4, align 8
  ret ptr %5
}

; Function Attrs: mustprogress nounwind uwtable
define linkonce_odr hidden noundef ptr @_Z8align_upIP12HeapWordImplmEPT_S3_T0_(ptr noundef %0, i64 noundef %1) #1 comdat {
  %3 = alloca ptr, align 8
  %4 = alloca i64, align 8
  store ptr %0, ptr %3, align 8
  store i64 %1, ptr %4, align 8
  %5 = load ptr, ptr %3, align 8
  %6 = ptrtoint ptr %5 to i64
  %7 = load i64, ptr %4, align 8
  %8 = call noundef i64 @_Z8align_upImmTnNSt9enable_ifIXcvbsr3std11is_integralIT_EE5valueEiE4typeELi0EES1_S1_T0_(i64 noundef %6, i64 noundef %7)
  %9 = inttoptr i64 %8 to ptr
  ret ptr %9
}

; Function Attrs: mustprogress nounwind uwtable
define linkonce_odr hidden noundef ptr @_ZNK12MutableSpace6bottomEv(ptr noundef nonnull align 8 dereferenceable(56) %0) #1 comdat align 2 {
  %2 = alloca ptr, align 8
  store ptr %0, ptr %2, align 8
  %3 = load ptr, ptr %2, align 8
  %4 = getelementptr inbounds %class.MutableSpace, ptr %3, i32 0, i32 3
  %5 = load ptr, ptr %4, align 8
  ret ptr %5
}

; Function Attrs: mustprogress nounwind uwtable
define linkonce_odr hidden noundef ptr @_ZNK16MutableNUMASpace9LGRPSpace5spaceEv(ptr noundef nonnull align 8 dereferenceable(64) %0) #1 comdat align 2 {
  %2 = alloca ptr, align 8
  store ptr %0, ptr %2, align 8
  %3 = load ptr, ptr %2, align 8
  %4 = getelementptr inbounds %"class.MutableNUMASpace::LGRPSpace", ptr %3, i32 0, i32 1
  %5 = load ptr, ptr %4, align 8
  ret ptr %5
}

; Function Attrs: mustprogress nounwind uwtable
define linkonce_odr hidden void @_ZN16MutableNUMASpace9LGRPSpace17clear_space_statsEv(ptr noundef nonnull align 8 dereferenceable(64) %0) #1 comdat align 2 {
  %2 = alloca ptr, align 8
  %3 = alloca %"struct.MutableNUMASpace::LGRPSpace::SpaceStats", align 8
  store ptr %0, ptr %2, align 8
  %4 = load ptr, ptr %2, align 8
  call void @_ZN16MutableNUMASpace9LGRPSpace10SpaceStatsC2Ev(ptr noundef nonnull align 8 dereferenceable(32) %3)
  %5 = getelementptr inbounds %"class.MutableNUMASpace::LGRPSpace", ptr %4, i32 0, i32 4
  call void @llvm.memcpy.p0.p0.i64(ptr align 8 %5, ptr align 8 %3, i64 32, i1 false)
  ret void
}

; Function Attrs: mustprogress nounwind uwtable
define hidden void @_ZN16MutableNUMASpace9LGRPSpace21accumulate_statisticsEm(ptr noundef nonnull align 8 dereferenceable(64) %0, i64 noundef %1) #1 align 2 {
  %3 = alloca ptr, align 8
  %4 = alloca i64, align 8
  %5 = alloca ptr, align 8
  %6 = alloca ptr, align 8
  %7 = alloca ptr, align 8
  %8 = alloca [128 x ptr], align 16
  %9 = alloca [128 x i32], align 16
  %10 = alloca i64, align 8
  %11 = alloca i64, align 8
  store ptr %0, ptr %3, align 8
  store i64 %1, ptr %4, align 8
  %12 = load ptr, ptr %3, align 8
  call void @_ZN16MutableNUMASpace9LGRPSpace17clear_space_statsEv(ptr noundef nonnull align 8 dereferenceable(64) %12)
  %13 = call noundef ptr @_ZNK16MutableNUMASpace9LGRPSpace5spaceEv(ptr noundef nonnull align 8 dereferenceable(64) %12)
  %14 = call noundef ptr @_ZNK12MutableSpace6bottomEv(ptr noundef nonnull align 8 dereferenceable(56) %13)
  %15 = load i64, ptr %4, align 8
  %16 = call noundef ptr @_Z8align_upIP12HeapWordImplmEPT_S3_T0_(ptr noundef %14, i64 noundef %15)
  store ptr %16, ptr %5, align 8
  %17 = call noundef ptr @_ZNK16MutableNUMASpace9LGRPSpace5spaceEv(ptr noundef nonnull align 8 dereferenceable(64) %12)
  %18 = call noundef ptr @_ZNK12MutableSpace3endEv(ptr noundef nonnull align 8 dereferenceable(56) %17)
  %19 = load i64, ptr %4, align 8
  %20 = call noundef ptr @_Z10align_downIP12HeapWordImplmEPT_S3_T0_(ptr noundef %18, i64 noundef %19)
  store ptr %20, ptr %6, align 8
  %21 = load ptr, ptr %5, align 8
  store ptr %21, ptr %7, align 8
  br label %22

22:                                               ; preds = %91, %2
  %23 = load ptr, ptr %7, align 8
  %24 = load ptr, ptr %6, align 8
  %25 = icmp ult ptr %23, %24
  br i1 %25, label %26, label %92

26:                                               ; preds = %22
  store i64 0, ptr %10, align 8
  br label %27

27:                                               ; preds = %41, %26
  %28 = load i64, ptr %10, align 8
  %29 = icmp ult i64 %28, 128
  br i1 %29, label %30, label %34

30:                                               ; preds = %27
  %31 = load ptr, ptr %7, align 8
  %32 = load ptr, ptr %6, align 8
  %33 = icmp ult ptr %31, %32
  br label %34

34:                                               ; preds = %30, %27
  %35 = phi i1 [ false, %27 ], [ %33, %30 ]
  br i1 %35, label %36, label %45

36:                                               ; preds = %34
  %37 = load ptr, ptr %7, align 8
  %38 = load i64, ptr %10, align 8
  %39 = add i64 %38, 1
  store i64 %39, ptr %10, align 8
  %40 = getelementptr inbounds [128 x ptr], ptr %8, i64 0, i64 %38
  store ptr %37, ptr %40, align 8
  br label %41

41:                                               ; preds = %36
  %42 = call noundef i64 @_ZN2os12vm_page_sizeEv()
  %43 = load ptr, ptr %7, align 8
  %44 = getelementptr inbounds i8, ptr %43, i64 %42
  store ptr %44, ptr %7, align 8
  br label %27, !llvm.loop !24

45:                                               ; preds = %34
  %46 = getelementptr inbounds [128 x ptr], ptr %8, i64 0, i64 0
  %47 = getelementptr inbounds [128 x i32], ptr %9, i64 0, i64 0
  %48 = load i64, ptr %10, align 8
  %49 = call noundef zeroext i1 @_ZN2os28numa_get_group_ids_for_rangeEPPKvPim(ptr noundef %46, ptr noundef %47, i64 noundef %48)
  br i1 %49, label %50, label %91

50:                                               ; preds = %45
  store i64 0, ptr %11, align 8
  br label %51

51:                                               ; preds = %87, %50
  %52 = load i64, ptr %11, align 8
  %53 = load i64, ptr %10, align 8
  %54 = icmp ult i64 %52, %53
  br i1 %54, label %55, label %90

55:                                               ; preds = %51
  %56 = load i64, ptr %11, align 8
  %57 = getelementptr inbounds [128 x i32], ptr %9, i64 0, i64 %56
  %58 = load i32, ptr %57, align 4
  %59 = icmp slt i32 %58, 0
  br i1 %59, label %60, label %66

60:                                               ; preds = %55
  %61 = call noundef i64 @_ZN2os12vm_page_sizeEv()
  %62 = call noundef ptr @_ZN16MutableNUMASpace9LGRPSpace11space_statsEv(ptr noundef nonnull align 8 dereferenceable(64) %12)
  %63 = getelementptr inbounds %"struct.MutableNUMASpace::LGRPSpace::SpaceStats", ptr %62, i32 0, i32 3
  %64 = load i64, ptr %63, align 8
  %65 = add i64 %64, %61
  store i64 %65, ptr %63, align 8
  br label %86

66:                                               ; preds = %55
  %67 = load i64, ptr %11, align 8
  %68 = getelementptr inbounds [128 x i32], ptr %9, i64 0, i64 %67
  %69 = load i32, ptr %68, align 4
  %70 = call noundef i32 @_Z12checked_castIjiET_T0_(i32 noundef %69)
  %71 = call noundef i32 @_ZNK16MutableNUMASpace9LGRPSpace7lgrp_idEv(ptr noundef nonnull align 8 dereferenceable(64) %12)
  %72 = icmp eq i32 %70, %71
  br i1 %72, label %73, label %79

73:                                               ; preds = %66
  %74 = call noundef i64 @_ZN2os12vm_page_sizeEv()
  %75 = call noundef ptr @_ZN16MutableNUMASpace9LGRPSpace11space_statsEv(ptr noundef nonnull align 8 dereferenceable(64) %12)
  %76 = getelementptr inbounds %"struct.MutableNUMASpace::LGRPSpace::SpaceStats", ptr %75, i32 0, i32 0
  %77 = load i64, ptr %76, align 8
  %78 = add i64 %77, %74
  store i64 %78, ptr %76, align 8
  br label %85

79:                                               ; preds = %66
  %80 = call noundef i64 @_ZN2os12vm_page_sizeEv()
  %81 = call noundef ptr @_ZN16MutableNUMASpace9LGRPSpace11space_statsEv(ptr noundef nonnull align 8 dereferenceable(64) %12)
  %82 = getelementptr inbounds %"struct.MutableNUMASpace::LGRPSpace::SpaceStats", ptr %81, i32 0, i32 1
  %83 = load i64, ptr %82, align 8
  %84 = add i64 %83, %80
  store i64 %84, ptr %82, align 8
  br label %85

85:                                               ; preds = %79, %73
  br label %86

86:                                               ; preds = %85, %60
  br label %87

87:                                               ; preds = %86
  %88 = load i64, ptr %11, align 8
  %89 = add i64 %88, 1
  store i64 %89, ptr %11, align 8
  br label %51, !llvm.loop !25

90:                                               ; preds = %51
  br label %91

91:                                               ; preds = %90, %45
  br label %22, !llvm.loop !26

92:                                               ; preds = %22
  %93 = load ptr, ptr %5, align 8
  %94 = call noundef ptr @_ZNK16MutableNUMASpace9LGRPSpace5spaceEv(ptr noundef nonnull align 8 dereferenceable(64) %12)
  %95 = call noundef ptr @_ZNK12MutableSpace6bottomEv(ptr noundef nonnull align 8 dereferenceable(56) %94)
  %96 = call noundef i64 @_Z13pointer_deltaPVKvS0_m(ptr noundef %93, ptr noundef %95, i64 noundef 1)
  %97 = call noundef ptr @_ZNK16MutableNUMASpace9LGRPSpace5spaceEv(ptr noundef nonnull align 8 dereferenceable(64) %12)
  %98 = call noundef ptr @_ZNK12MutableSpace3endEv(ptr noundef nonnull align 8 dereferenceable(56) %97)
  %99 = load ptr, ptr %6, align 8
  %100 = call noundef i64 @_Z13pointer_deltaPVKvS0_m(ptr noundef %98, ptr noundef %99, i64 noundef 1)
  %101 = add i64 %96, %100
  %102 = call noundef ptr @_ZN16MutableNUMASpace9LGRPSpace11space_statsEv(ptr noundef nonnull align 8 dereferenceable(64) %12)
  %103 = getelementptr inbounds %"struct.MutableNUMASpace::LGRPSpace::SpaceStats", ptr %102, i32 0, i32 2
  store i64 %101, ptr %103, align 8
  ret void
}