; Function Attrs: mustprogress nounwind uwtable
define hidden void @_ZN16MutableNUMASpace9LGRPSpace21accumulate_statisticsEm(ptr nocapture noundef nonnull align 8 dereferenceable(64) %0, i64 noundef %1) local_unnamed_addr #0 align 2 {
  %3 = alloca [128 x ptr], align 16
  %4 = alloca [128 x i32], align 16
  %5 = getelementptr inbounds i8, ptr %0, i64 32
  tail call void @llvm.memset.p0.i64(ptr noundef nonnull align 8 dereferenceable(32) %5, i8 0, i64 32, i1 false)
  %6 = getelementptr inbounds i8, ptr %0, i64 8
  %7 = load ptr, ptr %6, align 8
  %8 = getelementptr inbounds i8, ptr %7, i64 32
  %9 = load ptr, ptr %8, align 8
  %10 = ptrtoint ptr %9 to i64
  %11 = add i64 %1, -1
  %12 = add i64 %11, %10
  %13 = sub i64 0, %1
  %14 = and i64 %12, %13
  %15 = inttoptr i64 %14 to ptr
  %16 = getelementptr inbounds i8, ptr %7, i64 48
  %17 = load ptr, ptr %16, align 8
  %18 = ptrtoint ptr %17 to i64
  %19 = and i64 %18, %13
  %20 = inttoptr i64 %19 to ptr
  %21 = icmp ult ptr %15, %20
  br i1 %21, label %.preheader25.lr.ph, label %._crit_edge

.preheader25.lr.ph:                               ; preds = %2
  %22 = getelementptr inbounds i8, ptr %0, i64 40
  %23 = getelementptr inbounds i8, ptr %0, i64 56
  br label %.preheader25

.preheader25:                                     ; preds = %.preheader25.lr.ph, %.loopexit
  %.02031 = phi ptr [ %15, %.preheader25.lr.ph ], [ %28, %.loopexit ]
  %24 = load i64, ptr @_ZN6OSInfo13_vm_page_sizeE, align 8
  br label %25

25:                                               ; preds = %.preheader25, %25
  %indvars.iv = phi i64 [ 1, %.preheader25 ], [ %indvars.iv.next, %25 ]
  %.01927 = phi i64 [ 0, %.preheader25 ], [ %26, %25 ]
  %.126 = phi ptr [ %.02031, %.preheader25 ], [ %28, %25 ]
  %26 = add nuw nsw i64 %.01927, 1
  %27 = getelementptr inbounds [128 x ptr], ptr %3, i64 0, i64 %.01927
  store ptr %.126, ptr %27, align 8
  %28 = getelementptr inbounds i8, ptr %.126, i64 %24
  %29 = icmp ult i64 %.01927, 127
  %30 = icmp ult ptr %28, %20
  %31 = select i1 %29, i1 %30, i1 false
  %indvars.iv.next = add nuw nsw i64 %indvars.iv, 1
  br i1 %31, label %25, label %32, !llvm.loop !23

32:                                               ; preds = %25
  %33 = call noundef zeroext i1 @_ZN2os28numa_get_group_ids_for_rangeEPPKvPim(ptr noundef nonnull %3, ptr noundef nonnull %4, i64 noundef %26) #11
  br i1 %33, label %.preheader, label %.loopexit

.preheader:                                       ; preds = %32
  %.promoted = load i64, ptr %5, align 8
  %34 = load i32, ptr %0, align 8
  %35 = load i64, ptr @_ZN6OSInfo13_vm_page_sizeE, align 8
  %.promoted29 = load i64, ptr %22, align 8
  %.promoted30 = load i64, ptr %23, align 8
  br label %36

36:                                               ; preds = %.preheader, %51
  %37 = phi i64 [ %.promoted30, %.preheader ], [ %52, %51 ]
  %38 = phi i64 [ %.promoted29, %.preheader ], [ %53, %51 ]
  %.028 = phi i64 [ 0, %.preheader ], [ %55, %51 ]
  %39 = phi i64 [ %.promoted, %.preheader ], [ %54, %51 ]
  %40 = getelementptr inbounds [128 x i32], ptr %4, i64 0, i64 %.028
  %41 = load i32, ptr %40, align 4
  %42 = icmp slt i32 %41, 0
  br i1 %42, label %43, label %45

43:                                               ; preds = %36
  %44 = add i64 %37, %35
  store i64 %44, ptr %23, align 8
  br label %51

45:                                               ; preds = %36
  %46 = icmp eq i32 %41, %34
  br i1 %46, label %47, label %49

47:                                               ; preds = %45
  %48 = add i64 %39, %35
  store i64 %48, ptr %5, align 8
  br label %51

49:                                               ; preds = %45
  %50 = add i64 %38, %35
  store i64 %50, ptr %22, align 8
  br label %51

51:                                               ; preds = %43, %49, %47
  %52 = phi i64 [ %44, %43 ], [ %37, %49 ], [ %37, %47 ]
  %53 = phi i64 [ %38, %43 ], [ %50, %49 ], [ %38, %47 ]
  %54 = phi i64 [ %39, %43 ], [ %39, %49 ], [ %48, %47 ]
  %55 = add nuw nsw i64 %.028, 1
  %exitcond.not = icmp eq i64 %55, %indvars.iv
  br i1 %exitcond.not, label %.loopexit, label %36, !llvm.loop !24

.loopexit:                                        ; preds = %51, %32
  br i1 %30, label %.preheader25, label %._crit_edge.loopexit, !llvm.loop !25

._crit_edge.loopexit:                             ; preds = %.loopexit
  %.pre = load ptr, ptr %6, align 8
  %.phi.trans.insert = getelementptr inbounds i8, ptr %.pre, i64 32
  %.pre33 = load ptr, ptr %.phi.trans.insert, align 8
  %.phi.trans.insert34 = getelementptr inbounds i8, ptr %.pre, i64 48
  %.pre35 = load ptr, ptr %.phi.trans.insert34, align 8
  %.pre36 = ptrtoint ptr %.pre33 to i64
  %.pre37 = ptrtoint ptr %.pre35 to i64
  br label %._crit_edge

._crit_edge:                                      ; preds = %._crit_edge.loopexit, %2
  %.pre-phi38 = phi i64 [ %.pre37, %._crit_edge.loopexit ], [ %18, %2 ]
  %.pre-phi = phi i64 [ %.pre36, %._crit_edge.loopexit ], [ %10, %2 ]
  %56 = add i64 %19, %.pre-phi
  %57 = sub i64 %14, %56
  %58 = add i64 %57, %.pre-phi38
  %59 = getelementptr inbounds i8, ptr %0, i64 48
  store i64 %58, ptr %59, align 8
  ret void
}